; Function Attrs: mustprogress nounwind uwtable
define hidden void @_ZN13SafePointNode10grow_stackEP8JVMStatej(ptr noundef nonnull align 8 dereferenceable(81) %0, ptr nocapture noundef %1, i32 noundef %2) local_unnamed_addr #2 align 2 {
  %4 = getelementptr inbounds i8, ptr %1, i64 20
  %5 = load i32, ptr %4, align 4
  %6 = getelementptr inbounds i8, ptr %1, i64 24
  %7 = load <2 x i32>, ptr %6, align 8
  %8 = tail call align 8 ptr @llvm.threadlocal.address.p0(ptr align 8 @_ZN6Thread12_thr_currentE)
  %9 = load ptr, ptr %8, align 8
  %10 = getelementptr inbounds i8, ptr %9, i64 1808
  %11 = load ptr, ptr %10, align 8
  %12 = getelementptr inbounds i8, ptr %11, i64 128
  %13 = load ptr, ptr %12, align 8
  %14 = getelementptr inbounds i8, ptr %13, i64 744
  %15 = load ptr, ptr %14, align 8
  %.not = icmp eq i32 %2, 0
  br i1 %.not, label %._crit_edge, label %.lr.ph

.lr.ph:                                           ; preds = %3, %.lr.ph
  %.018 = phi i32 [ %16, %.lr.ph ], [ 0, %3 ]
  tail call void @_ZN4Node7ins_reqEjPS_(ptr noundef nonnull align 8 dereferenceable(52) %0, i32 noundef %5, ptr noundef %15) #15
  %16 = add nuw i32 %.018, 1
  %exitcond.not = icmp eq i32 %16, %2
  br i1 %exitcond.not, label %._crit_edge, label %.lr.ph, !llvm.loop !27

._crit_edge:                                      ; preds = %.lr.ph, %3
  %17 = add i32 %5, %2
  store i32 %17, ptr %4, align 4
  %18 = insertelement <2 x i32> poison, i32 %2, i64 0
  %19 = shufflevector <2 x i32> %18, <2 x i32> poison, <2 x i32> zeroinitializer
  %20 = add <2 x i32> %7, %19
  store <2 x i32> %20, ptr %6, align 8
  ret void
}